target datalayout = "e-m:e-p270:32:32-p271:32:32-p272:64:64-i64:64-i128:128-f80:128-n8:16:32:64-S128"
target triple = "x86_64-pc-linux-gnu"

%"class.OopStorage::OopFn" = type { ptr }
%class.Semaphore = type { %class.PosixSemaphore }
%class.PosixSemaphore = type { %union.sem_t }
%union.sem_t = type { i64, [24 x i8] }
%class.OopStorage = type <{ ptr, ptr, %"class.OopStorage::AllocationList", ptr, ptr, ptr, ptr, i64, %class.SingleWriterSynchronizer, i32, i8, i8, [2 x i8] }>
%"class.OopStorage::AllocationList" = type { ptr, ptr }
%class.SingleWriterSynchronizer = type { i32, [2 x i32], i32, %class.Semaphore }
%"class.OopStorage::Block" = type { [64 x ptr], i64, i64, ptr, i64, %"class.OopStorage::AllocationListEntry", ptr, i64 }
%"class.OopStorage::AllocationListEntry" = type { ptr, ptr }

@_ZN10JNIHandles15_global_handlesE = hidden global ptr null, align 8

; Function Attrs: mustprogress nounwind uwtable
define linkonce_odr hidden noundef i64 @_Z10align_downImmTnNSt9enable_ifIXcvbsr3std11is_integralIT_EE5valueEiE4typeELi0EES1_S1_T0_(i64 noundef %0, i64 noundef %1) #1 comdat {
  %3 = alloca i64, align 8
  %4 = alloca i64, align 8
  %5 = alloca i64, align 8
  store i64 %0, ptr %3, align 8
  store i64 %1, ptr %4, align 8
  %6 = load i64, ptr %3, align 8
  %7 = load i64, ptr %4, align 8
  %8 = call noundef i64 @_ZL14alignment_maskImTnNSt9enable_ifIXcvbsr3std11is_integralIT_EE5valueEiE4typeELi0EES1_S1_(i64 noundef %7)
  %9 = xor i64 %8, -1
  %10 = and i64 %6, %9
  store i64 %10, ptr %5, align 8
  %11 = load i64, ptr %5, align 8
  ret i64 %11
}

; Function Attrs: mustprogress nounwind uwtable
define linkonce_odr hidden noundef i64 @_Z12checked_castImmET_T0_(i64 noundef %0) #1 comdat {
  %2 = alloca i64, align 8
  %3 = alloca i64, align 8
  store i64 %0, ptr %2, align 8
  %4 = load i64, ptr %2, align 8
  store i64 %4, ptr %3, align 8
  %5 = load i64, ptr %3, align 8
  ret i64 %5
}

; Function Attrs: mustprogress nounwind uwtable
define internal noundef i64 @_ZL14alignment_maskImTnNSt9enable_ifIXcvbsr3std11is_integralIT_EE5valueEiE4typeELi0EES1_S1_(i64 noundef %0) #1 {
  %2 = alloca i64, align 8
  store i64 %0, ptr %2, align 8
  %3 = load i64, ptr %2, align 8
  %4 = sub i64 %3, 1
  ret i64 %4
}

; Function Attrs: mustprogress nounwind uwtable
define linkonce_odr hidden noundef i64 @_Z8align_upImmTnNSt9enable_ifIXcvbsr3std11is_integralIT_EE5valueEiE4typeELi0EES1_S1_T0_(i64 noundef %0, i64 noundef %1) #1 comdat {
  %3 = alloca i64, align 8
  %4 = alloca i64, align 8
  %5 = alloca i64, align 8
  store i64 %0, ptr %3, align 8
  store i64 %1, ptr %4, align 8
  %6 = load i64, ptr %3, align 8
  %7 = load i64, ptr %4, align 8
  %8 = call noundef i64 @_ZL14alignment_maskImTnNSt9enable_ifIXcvbsr3std11is_integralIT_EE5valueEiE4typeELi0EES1_S1_(i64 noundef %7)
  %9 = add i64 %6, %8
  %10 = call noundef i64 @_Z12checked_castImmET_T0_(i64 noundef %9)
  store i64 %10, ptr %5, align 8
  %11 = load i64, ptr %5, align 8
  %12 = load i64, ptr %4, align 8
  %13 = call noundef i64 @_Z10align_downImmTnNSt9enable_ifIXcvbsr3std11is_integralIT_EE5valueEiE4typeELi0EES1_S1_T0_(i64 noundef %11, i64 noundef %12)
  ret i64 %13
}

; Function Attrs: mustprogress nounwind uwtable
define linkonce_odr hidden void @_ZNK10OopStorage5Block11check_indexEj(ptr noundef nonnull align 8 dereferenceable(576) %0, i32 noundef %1) #1 comdat align 2 {
  %3 = alloca ptr, align 8
  %4 = alloca i32, align 4
  store ptr %0, ptr %3, align 8
  store i32 %1, ptr %4, align 4
  ret void
}

; Function Attrs: mustprogress nounwind uwtable
define linkonce_odr hidden noundef i32 @_Z23count_trailing_zeros_64m(i64 noundef %0) #1 comdat {
  %2 = alloca i64, align 8
  store i64 %0, ptr %2, align 8
  %3 = load i64, ptr %2, align 8
  %4 = call i64 @llvm.cttz.i64(i64 %3, i1 true)
  %5 = trunc i64 %4 to i32
  ret i32 %5
}

; Function Attrs: mustprogress nounwind uwtable
define linkonce_odr hidden noundef i64 @_ZN10OopStorage11ActiveArray13blocks_offsetEv() #1 comdat align 2 {
  %1 = call noundef i64 @_Z8align_upImmTnNSt9enable_ifIXcvbsr3std11is_integralIT_EE5valueEiE4typeELi0EES1_S1_T0_(i64 noundef 24, i64 noundef 8)
  ret i64 %1
}

; Function Attrs: mustprogress nounwind uwtable
define linkonce_odr hidden noundef zeroext i1 @_ZNK10OopStorage5OopFnI10OopClosureEclIPP7oopDescEEbT_(ptr noundef nonnull align 8 dereferenceable(8) %0, ptr noundef %1) #1 comdat align 2 {
  %3 = alloca ptr, align 8
  %4 = alloca ptr, align 8
  store ptr %0, ptr %3, align 8
  store ptr %1, ptr %4, align 8
  %5 = load ptr, ptr %3, align 8
  %6 = getelementptr inbounds %"class.OopStorage::OopFn", ptr %5, i32 0, i32 0
  %7 = load ptr, ptr %6, align 8
  %8 = load ptr, ptr %4, align 8
  %9 = load ptr, ptr %7, align 8
  %10 = getelementptr inbounds ptr, ptr %9, i64 0
  %11 = load ptr, ptr %10, align 8
  call void %11(ptr noundef nonnull align 8 dereferenceable(8) %7, ptr noundef %8)
  ret i1 true
}

; Function Attrs: mustprogress nounwind uwtable
define linkonce_odr hidden noundef ptr @_ZN10OopStorage5Block11get_pointerEj(ptr noundef nonnull align 8 dereferenceable(576) %0, i32 noundef %1) #1 comdat align 2 {
  %3 = alloca ptr, align 8
  %4 = alloca i32, align 4
  store ptr %0, ptr %3, align 8
  store i32 %1, ptr %4, align 4
  %5 = load ptr, ptr %3, align 8
  %6 = load i32, ptr %4, align 4
  call void @_ZNK10OopStorage5Block11check_indexEj(ptr noundef nonnull align 8 dereferenceable(576) %5, i32 noundef %6)
  %7 = getelementptr inbounds %"class.OopStorage::Block", ptr %5, i32 0, i32 0
  %8 = load i32, ptr %4, align 4
  %9 = zext i32 %8 to i64
  %10 = getelementptr inbounds [64 x ptr], ptr %7, i64 0, i64 %9
  ret ptr %10
}

; Function Attrs: mustprogress nounwind uwtable
define linkonce_odr hidden noundef i64 @_ZNK10OopStorage5Block17bitmask_for_indexEj(ptr noundef nonnull align 8 dereferenceable(576) %0, i32 noundef %1) #1 comdat align 2 {
  %3 = alloca ptr, align 8
  %4 = alloca i32, align 4
  store ptr %0, ptr %3, align 8
  store i32 %1, ptr %4, align 4
  %5 = load ptr, ptr %3, align 8
  %6 = load i32, ptr %4, align 4
  call void @_ZNK10OopStorage5Block11check_indexEj(ptr noundef nonnull align 8 dereferenceable(576) %5, i32 noundef %6)
  %7 = load i32, ptr %4, align 4
  %8 = zext i32 %7 to i64
  %9 = shl i64 1, %8
  ret i64 %9
}

; Function Attrs: mustprogress nounwind uwtable
define linkonce_odr hidden noundef i32 @_Z20count_trailing_zerosImTnNSt9enable_ifIXcvbsr3std11is_integralIT_EE5valueEiE4typeELi0ETnNS0_IXcvblestS1_Lm8EEiE4typeELi0EEjS1_(i64 noundef %0) #1 comdat {
  %2 = alloca i64, align 8
  store i64 %0, ptr %2, align 8
  %3 = load i64, ptr %2, align 8
  %4 = call noundef i32 @_Z23count_trailing_zeros_64m(i64 noundef %3)
  ret i32 %4
}

; Function Attrs: mustprogress nounwind uwtable
define linkonce_odr hidden noundef i64 @_ZNK10OopStorage5Block17allocated_bitmaskEv(ptr noundef nonnull align 8 dereferenceable(576) %0) #1 comdat align 2 {
  %2 = alloca ptr, align 8
  store ptr %0, ptr %2, align 8
  %3 = load ptr, ptr %2, align 8
  %4 = getelementptr inbounds %"class.OopStorage::Block", ptr %3, i32 0, i32 1
  %5 = load volatile i64, ptr %4, align 8
  ret i64 %5
}

; Function Attrs: mustprogress nounwind uwtable
define linkonce_odr hidden noundef ptr @_ZNK10OopStorage11ActiveArray8base_ptrEv(ptr noundef nonnull align 8 dereferenceable(20) %0) #1 comdat align 2 {
  %2 = alloca ptr, align 8
  %3 = alloca ptr, align 8
  store ptr %0, ptr %2, align 8
  %4 = load ptr, ptr %2, align 8
  %5 = call noundef i64 @_ZN10OopStorage11ActiveArray13blocks_offsetEv()
  %6 = getelementptr inbounds i8, ptr %4, i64 %5
  store ptr %6, ptr %3, align 8
  %7 = load ptr, ptr %3, align 8
  ret ptr %7
}

; Function Attrs: mustprogress nounwind uwtable
define linkonce_odr hidden noundef zeroext i1 @_ZN10OopStorage5Block12iterate_implINS_5OopFnI10OopClosureEEPS0_EEbT_T0_(ptr %0, ptr noundef %1) #1 comdat align 2 {
  %3 = alloca i1, align 1
  %4 = alloca %"class.OopStorage::OopFn", align 8
  %5 = alloca ptr, align 8
  %6 = alloca i64, align 8
  %7 = alloca i32, align 4
  %8 = getelementptr inbounds %"class.OopStorage::OopFn", ptr %4, i32 0, i32 0
  store ptr %0, ptr %8, align 8
  store ptr %1, ptr %5, align 8
  %9 = load ptr, ptr %5, align 8
  %10 = call noundef i64 @_ZNK10OopStorage5Block17allocated_bitmaskEv(ptr noundef nonnull align 8 dereferenceable(576) %9)
  store i64 %10, ptr %6, align 8
  br label %11

11:                                               ; preds = %27, %2
  %12 = load i64, ptr %6, align 8
  %13 = icmp ne i64 %12, 0
  br i1 %13, label %14, label %28

14:                                               ; preds = %11
  %15 = load i64, ptr %6, align 8
  %16 = call noundef i32 @_Z20count_trailing_zerosImTnNSt9enable_ifIXcvbsr3std11is_integralIT_EE5valueEiE4typeELi0ETnNS0_IXcvblestS1_Lm8EEiE4typeELi0EEjS1_(i64 noundef %15)
  store i32 %16, ptr %7, align 4
  %17 = load ptr, ptr %5, align 8
  %18 = load i32, ptr %7, align 4
  %19 = call noundef i64 @_ZNK10OopStorage5Block17bitmask_for_indexEj(ptr noundef nonnull align 8 dereferenceable(576) %17, i32 noundef %18)
  %20 = load i64, ptr %6, align 8
  %21 = xor i64 %20, %19
  store i64 %21, ptr %6, align 8
  %22 = load ptr, ptr %5, align 8
  %23 = load i32, ptr %7, align 4
  %24 = call noundef ptr @_ZN10OopStorage5Block11get_pointerEj(ptr noundef nonnull align 8 dereferenceable(576) %22, i32 noundef %23)
  %25 = call noundef zeroext i1 @_ZNK10OopStorage5OopFnI10OopClosureEclIPP7oopDescEEbT_(ptr noundef nonnull align 8 dereferenceable(8) %4, ptr noundef %24)
  br i1 %25, label %27, label %26

26:                                               ; preds = %14
  store i1 false, ptr %3, align 1
  br label %29

27:                                               ; preds = %14
  br label %11, !llvm.loop !23

28:                                               ; preds = %11
  store i1 true, ptr %3, align 1
  br label %29

29:                                               ; preds = %28, %26
  %30 = load i1, ptr %3, align 1
  ret i1 %30
}

; Function Attrs: mustprogress nounwind uwtable
define linkonce_odr hidden noundef ptr @_ZNK10OopStorage11ActiveArray9block_ptrEm(ptr noundef nonnull align 8 dereferenceable(20) %0, i64 noundef %1) #1 comdat align 2 {
  %3 = alloca ptr, align 8
  %4 = alloca i64, align 8
  store ptr %0, ptr %3, align 8
  store i64 %1, ptr %4, align 8
  %5 = load ptr, ptr %3, align 8
  %6 = call noundef ptr @_ZNK10OopStorage11ActiveArray8base_ptrEv(ptr noundef nonnull align 8 dereferenceable(20) %5)
  %7 = load i64, ptr %4, align 8
  %8 = getelementptr inbounds ptr, ptr %6, i64 %7
  ret ptr %8
}

; Function Attrs: mustprogress nounwind uwtable
define linkonce_odr hidden noundef zeroext i1 @_ZN10OopStorage5Block7iterateINS_5OopFnI10OopClosureEEEEbT_(ptr noundef nonnull align 8 dereferenceable(576) %0, ptr %1) #1 comdat align 2 {
  %3 = alloca %"class.OopStorage::OopFn", align 8
  %4 = alloca ptr, align 8
  %5 = alloca %"class.OopStorage::OopFn", align 8
  %6 = getelementptr inbounds %"class.OopStorage::OopFn", ptr %3, i32 0, i32 0
  store ptr %1, ptr %6, align 8
  store ptr %0, ptr %4, align 8
  %7 = load ptr, ptr %4, align 8
  call void @llvm.memcpy.p0.p0.i64(ptr align 8 %5, ptr align 8 %3, i64 8, i1 false)
  %8 = getelementptr inbounds %"class.OopStorage::OopFn", ptr %5, i32 0, i32 0
  %9 = load ptr, ptr %8, align 8
  %10 = call noundef zeroext i1 @_ZN10OopStorage5Block12iterate_implINS_5OopFnI10OopClosureEEPS0_EEbT_T0_(ptr %9, ptr noundef %7)
  ret i1 %10
}

; Function Attrs: mustprogress nounwind uwtable
define linkonce_odr hidden noundef ptr @_ZNK10OopStorage11ActiveArray2atEm(ptr noundef nonnull align 8 dereferenceable(20) %0, i64 noundef %1) #1 comdat align 2 {
  %3 = alloca ptr, align 8
  %4 = alloca i64, align 8
  store ptr %0, ptr %3, align 8
  store i64 %1, ptr %4, align 8
  %5 = load ptr, ptr %3, align 8
  %6 = load i64, ptr %4, align 8
  %7 = call noundef ptr @_ZNK10OopStorage11ActiveArray9block_ptrEm(ptr noundef nonnull align 8 dereferenceable(20) %5, i64 noundef %6)
  %8 = load ptr, ptr %7, align 8
  ret ptr %8
}

; Function Attrs: mustprogress nounwind uwtable
define linkonce_odr hidden noundef zeroext i1 @_ZN10OopStorage12iterate_implINS_5OopFnI10OopClosureEES_EEbT_PT0_(ptr %0, ptr noundef %1) #1 comdat align 2 {
  %3 = alloca i1, align 1
  %4 = alloca %"class.OopStorage::OopFn", align 8
  %5 = alloca ptr, align 8
  %6 = alloca ptr, align 8
  %7 = alloca i64, align 8
  %8 = alloca i64, align 8
  %9 = alloca ptr, align 8
  %10 = alloca %"class.OopStorage::OopFn", align 8
  %11 = getelementptr inbounds %"class.OopStorage::OopFn", ptr %4, i32 0, i32 0
  store ptr %0, ptr %11, align 8
  store ptr %1, ptr %5, align 8
  %12 = load ptr, ptr %5, align 8
  %13 = getelementptr inbounds %class.OopStorage, ptr %12, i32 0, i32 1
  %14 = load ptr, ptr %13, align 8
  store ptr %14, ptr %6, align 8
  %15 = load ptr, ptr %6, align 8
  %16 = call noundef i64 @_ZNK10OopStorage11ActiveArray11block_countEv(ptr noundef nonnull align 8 dereferenceable(20) %15)
  store i64 %16, ptr %7, align 8
  store i64 0, ptr %8, align 8
  br label %17

17:                                               ; preds = %31, %2
  %18 = load i64, ptr %8, align 8
  %19 = load i64, ptr %7, align 8
  %20 = icmp ult i64 %18, %19
  br i1 %20, label %21, label %34

21:                                               ; preds = %17
  %22 = load ptr, ptr %6, align 8
  %23 = load i64, ptr %8, align 8
  %24 = call noundef ptr @_ZNK10OopStorage11ActiveArray2atEm(ptr noundef nonnull align 8 dereferenceable(20) %22, i64 noundef %23)
  store ptr %24, ptr %9, align 8
  %25 = load ptr, ptr %9, align 8
  call void @llvm.memcpy.p0.p0.i64(ptr align 8 %10, ptr align 8 %4, i64 8, i1 false)
  %26 = getelementptr inbounds %"class.OopStorage::OopFn", ptr %10, i32 0, i32 0
  %27 = load ptr, ptr %26, align 8
  %28 = call noundef zeroext i1 @_ZN10OopStorage5Block7iterateINS_5OopFnI10OopClosureEEEEbT_(ptr noundef nonnull align 8 dereferenceable(576) %25, ptr %27)
  br i1 %28, label %30, label %29

29:                                               ; preds = %21
  store i1 false, ptr %3, align 1
  br label %35

30:                                               ; preds = %21
  br label %31

31:                                               ; preds = %30
  %32 = load i64, ptr %8, align 8
  %33 = add i64 %32, 1
  store i64 %33, ptr %8, align 8
  br label %17, !llvm.loop !22

34:                                               ; preds = %17
  store i1 true, ptr %3, align 1
  br label %35

35:                                               ; preds = %34, %29
  %36 = load i1, ptr %3, align 1
  ret i1 %36
}

; Function Attrs: mustprogress nounwind uwtable
define linkonce_odr hidden void @_ZN10OopStorage5OopFnI10OopClosureEC2EPS1_(ptr noundef nonnull align 8 dereferenceable(8) %0, ptr noundef %1) unnamed_addr #1 comdat align 2 {
  %3 = alloca ptr, align 8
  %4 = alloca ptr, align 8
  store ptr %0, ptr %3, align 8
  store ptr %1, ptr %4, align 8
  %5 = load ptr, ptr %3, align 8
  %6 = getelementptr inbounds %"class.OopStorage::OopFn", ptr %5, i32 0, i32 0
  %7 = load ptr, ptr %4, align 8
  store ptr %7, ptr %6, align 8
  ret void
}

; Function Attrs: mustprogress nounwind uwtable
define linkonce_odr hidden noundef zeroext i1 @_ZN10OopStorage17iterate_safepointINS_5OopFnI10OopClosureEEEEbT_(ptr noundef nonnull align 8 dereferenceable(126) %0, ptr %1) #1 comdat align 2 {
  %3 = alloca %"class.OopStorage::OopFn", align 8
  %4 = alloca ptr, align 8
  %5 = alloca %"class.OopStorage::OopFn", align 8
  %6 = getelementptr inbounds %"class.OopStorage::OopFn", ptr %3, i32 0, i32 0
  store ptr %1, ptr %6, align 8
  store ptr %0, ptr %4, align 8
  %7 = load ptr, ptr %4, align 8
  call void @llvm.memcpy.p0.p0.i64(ptr align 8 %5, ptr align 8 %3, i64 8, i1 false)
  %8 = getelementptr inbounds %"class.OopStorage::OopFn", ptr %5, i32 0, i32 0
  %9 = load ptr, ptr %8, align 8
  %10 = call noundef zeroext i1 @_ZN10OopStorage12iterate_implINS_5OopFnI10OopClosureEES_EEbT_PT0_(ptr %9, ptr noundef %7)
  ret i1 %10
}

; Function Attrs: mustprogress nounwind uwtable
define linkonce_odr hidden ptr @_ZN10OopStorage6oop_fnI10OopClosureEENS_5OopFnIT_EEPS3_(ptr noundef %0) #1 comdat align 2 {
  %2 = alloca %"class.OopStorage::OopFn", align 8
  %3 = alloca ptr, align 8
  store ptr %0, ptr %3, align 8
  %4 = load ptr, ptr %3, align 8
  call void @_ZN10OopStorage5OopFnI10OopClosureEC2EPS1_(ptr noundef nonnull align 8 dereferenceable(8) %2, ptr noundef %4)
  %5 = getelementptr inbounds %"class.OopStorage::OopFn", ptr %2, i32 0, i32 0
  %6 = load ptr, ptr %5, align 8
  ret ptr %6
}

; Function Attrs: mustprogress nounwind uwtable
define linkonce_odr hidden void @_ZN10OopStorage7oops_doI10OopClosureEEvPT_(ptr noundef nonnull align 8 dereferenceable(126) %0, ptr noundef %1) #1 comdat align 2 {
  %3 = alloca ptr, align 8
  %4 = alloca ptr, align 8
  %5 = alloca %"class.OopStorage::OopFn", align 8
  store ptr %0, ptr %3, align 8
  store ptr %1, ptr %4, align 8
  %6 = load ptr, ptr %3, align 8
  %7 = load ptr, ptr %4, align 8
  %8 = call ptr @_ZN10OopStorage6oop_fnI10OopClosureEENS_5OopFnIT_EEPS3_(ptr noundef %7)
  %9 = getelementptr inbounds %"class.OopStorage::OopFn", ptr %5, i32 0, i32 0
  store ptr %8, ptr %9, align 8
  %10 = getelementptr inbounds %"class.OopStorage::OopFn", ptr %5, i32 0, i32 0
  %11 = load ptr, ptr %10, align 8
  %12 = call noundef zeroext i1 @_ZN10OopStorage17iterate_safepointINS_5OopFnI10OopClosureEEEEbT_(ptr noundef nonnull align 8 dereferenceable(126) %6, ptr %11)
  ret void
}

; Function Attrs: mustprogress nounwind uwtable
define hidden noundef ptr @_ZN10JNIHandles14global_handlesEv() #1 align 2 {
  %1 = load ptr, ptr @_ZN10JNIHandles15_global_handlesE, align 8
  ret ptr %1
}

; Function Attrs: mustprogress nounwind uwtable
define hidden void @_ZN10JNIHandles7oops_doEP10OopClosure(ptr noundef %0) #1 align 2 {
  %2 = alloca ptr, align 8
  store ptr %0, ptr %2, align 8
  %3 = call noundef ptr @_ZN10JNIHandles14global_handlesEv()
  %4 = load ptr, ptr %2, align 8
  call void @_ZN10OopStorage7oops_doI10OopClosureEEvPT_(ptr noundef nonnull align 8 dereferenceable(126) %3, ptr noundef %4)
  ret void
}