; Function Attrs: mustprogress nounwind uwtable
define hidden void @_ZN10JNIHandles7oops_doEP10OopClosure(ptr noundef %0) local_unnamed_addr #1 align 2 {
  %2 = load ptr, ptr @_ZN10JNIHandles15_global_handlesE, align 8
  %3 = getelementptr inbounds i8, ptr %2, i64 8
  %4 = load ptr, ptr %3, align 8
  %5 = tail call noundef i64 @_ZNK10OopStorage11ActiveArray11block_countEv(ptr noundef nonnull align 8 dereferenceable(20) %4) #11
  %.not10.not.i.i.i = icmp eq i64 %5, 0
  br i1 %.not10.not.i.i.i, label %_ZN10OopStorage7oops_doI10OopClosureEEvPT_.exit, label %.lr.ph.i.i.i

.lr.ph.i.i.i:                                     ; preds = %1
  %6 = getelementptr inbounds i8, ptr %4, i64 24
  br label %7

7:                                                ; preds = %_ZN10OopStorage5Block7iterateINS_5OopFnI10OopClosureEEEEbT_.exit.i.i.i, %.lr.ph.i.i.i
  %.0911.i.i.i = phi i64 [ 0, %.lr.ph.i.i.i ], [ %18, %_ZN10OopStorage5Block7iterateINS_5OopFnI10OopClosureEEEEbT_.exit.i.i.i ]
  %8 = getelementptr inbounds ptr, ptr %6, i64 %.0911.i.i.i
  %9 = load ptr, ptr %8, align 8
  %10 = getelementptr inbounds i8, ptr %9, i64 512
  %11 = load volatile i64, ptr %10, align 8
  %.not9.i.i.i.i.i = icmp eq i64 %11, 0
  br i1 %.not9.i.i.i.i.i, label %_ZN10OopStorage5Block7iterateINS_5OopFnI10OopClosureEEEEbT_.exit.i.i.i, label %.lr.ph.i.i.i.i.i

.lr.ph.i.i.i.i.i:                                 ; preds = %7, %.lr.ph.i.i.i.i.i
  %.0810.i.i.i.i.i = phi i64 [ %14, %.lr.ph.i.i.i.i.i ], [ %11, %7 ]
  %12 = tail call range(i64 0, 65) i64 @llvm.cttz.i64(i64 %.0810.i.i.i.i.i, i1 true)
  %13 = shl nuw i64 1, %12
  %14 = xor i64 %13, %.0810.i.i.i.i.i
  %15 = getelementptr inbounds [64 x ptr], ptr %9, i64 0, i64 %12
  %16 = load ptr, ptr %0, align 8
  %17 = load ptr, ptr %16, align 8
  tail call void %17(ptr noundef nonnull align 8 dereferenceable(8) %0, ptr noundef nonnull %15) #11
  %.not.i.i.i.i.i = icmp eq i64 %13, %.0810.i.i.i.i.i
  br i1 %.not.i.i.i.i.i, label %_ZN10OopStorage5Block7iterateINS_5OopFnI10OopClosureEEEEbT_.exit.i.i.i, label %.lr.ph.i.i.i.i.i, !llvm.loop !11

_ZN10OopStorage5Block7iterateINS_5OopFnI10OopClosureEEEEbT_.exit.i.i.i: ; preds = %.lr.ph.i.i.i.i.i, %7
  %18 = add nuw i64 %.0911.i.i.i, 1
  %exitcond.not.i.i.i = icmp eq i64 %18, %5
  br i1 %exitcond.not.i.i.i, label %_ZN10OopStorage7oops_doI10OopClosureEEvPT_.exit, label %7, !llvm.loop !12

_ZN10OopStorage7oops_doI10OopClosureEEvPT_.exit:  ; preds = %_ZN10OopStorage5Block7iterateINS_5OopFnI10OopClosureEEEEbT_.exit.i.i.i, %1
  ret void
}